target datalayout = "e-m:e-p270:32:32-p271:32:32-p272:64:64-i64:64-i128:128-f80:128-n8:16:32:64-S128"
target triple = "x86_64-pc-linux-gnu"

%struct.Field = type { i32, ptr, i32 }

@_ZL22names_UDateFormatStyle = internal constant [4 x %struct.Field] [%struct.Field { i32 5, ptr @.str.56, i32 0 }, %struct.Field { i32 5, ptr @.str.57, i32 1 }, %struct.Field { i32 5, ptr @.str.58, i32 2 }, %struct.Field { i32 5, ptr @.str.59, i32 3 }], align 16
@_ZL19names_UAcceptResult = internal constant [3 x %struct.Field] [%struct.Field { i32 12, ptr @.str.60, i32 0 }, %struct.Field { i32 12, ptr @.str.61, i32 1 }, %struct.Field { i32 12, ptr @.str.62, i32 2 }], align 16

; Function Attrs: mustprogress nounwind uwtable
define internal noundef ptr @_ZL16_udbg_enumFields14UDebugEnumType(i32 noundef %0) #0 {
  %2 = alloca ptr, align 8
  %3 = alloca i32, align 4
  store i32 %0, ptr %3, align 4, !tbaa !23
  %4 = load i32, ptr %3, align 4, !tbaa !23
  switch i32 %4, label %11 [
    i32 0, label %5
    i32 1, label %6
    i32 2, label %7
    i32 3, label %8
    i32 4, label %9
    i32 5, label %10
  ]

5:                                                ; preds = %1
  store ptr @_ZL20names_UDebugEnumType, ptr %2, align 8
  br label %12

6:                                                ; preds = %1
  store ptr @_ZL25names_UCalendarDateFields, ptr %2, align 8
  br label %12

7:                                                ; preds = %1
  store ptr @_ZL21names_UCalendarMonths, ptr %2, align 8
  br label %12

8:                                                ; preds = %1
  store ptr @_ZL22names_UDateFormatStyle, ptr %2, align 8
  br label %12

9:                                                ; preds = %1
  store ptr @_ZL19names_UAcceptResult, ptr %2, align 8
  br label %12

10:                                               ; preds = %1
  store ptr @_ZL24names_UColAttributeValue, ptr %2, align 8
  br label %12

11:                                               ; preds = %1
  store ptr null, ptr %2, align 8
  br label %12

12:                                               ; preds = %11, %10, %9, %8, %7, %6, %5
  %13 = load ptr, ptr %2, align 8
  ret ptr %13
}

; Function Attrs: mustprogress nounwind uwtable
define internal noundef i32 @_ZL15_udbg_enumCount14UDebugEnumTypea(i32 noundef %0, i8 noundef signext %1) #0 {
  %3 = alloca i32, align 4
  %4 = alloca i32, align 4
  %5 = alloca i8, align 1
  store i32 %0, ptr %4, align 4, !tbaa !23
  store i8 %1, ptr %5, align 1, !tbaa !25
  %6 = load i32, ptr %4, align 4, !tbaa !23
  switch i32 %6, label %31 [
    i32 0, label %7
    i32 1, label %11
    i32 2, label %15
    i32 3, label %19
    i32 4, label %23
    i32 5, label %27
  ]

7:                                                ; preds = %2
  %8 = load i8, ptr %5, align 1, !tbaa !25
  %9 = icmp ne i8 %8, 0
  %10 = select i1 %9, i32 6, i32 6
  store i32 %10, ptr %3, align 4
  br label %32

11:                                               ; preds = %2
  %12 = load i8, ptr %5, align 1, !tbaa !25
  %13 = icmp ne i8 %12, 0
  %14 = select i1 %13, i32 24, i32 24
  store i32 %14, ptr %3, align 4
  br label %32

15:                                               ; preds = %2
  %16 = load i8, ptr %5, align 1, !tbaa !25
  %17 = icmp ne i8 %16, 0
  %18 = select i1 %17, i32 13, i32 13
  store i32 %18, ptr %3, align 4
  br label %32

19:                                               ; preds = %2
  %20 = load i8, ptr %5, align 1, !tbaa !25
  %21 = icmp ne i8 %20, 0
  %22 = select i1 %21, i32 4, i32 4
  store i32 %22, ptr %3, align 4
  br label %32

23:                                               ; preds = %2
  %24 = load i8, ptr %5, align 1, !tbaa !25
  %25 = icmp ne i8 %24, 0
  %26 = select i1 %25, i32 3, i32 3
  store i32 %26, ptr %3, align 4
  br label %32

27:                                               ; preds = %2
  %28 = load i8, ptr %5, align 1, !tbaa !25
  %29 = icmp ne i8 %28, 0
  %30 = select i1 %29, i32 26, i32 11
  store i32 %30, ptr %3, align 4
  br label %32

31:                                               ; preds = %2
  store i32 -1, ptr %3, align 4
  br label %32

32:                                               ; preds = %31, %27, %23, %19, %15, %11, %7
  %33 = load i32, ptr %3, align 4
  ret i32 %33
}

; Function Attrs: mustprogress uwtable
define i32 @udbg_enumByName(i32 noundef %0, ptr noundef %1) #1 {
  %3 = alloca i32, align 4
  %4 = alloca i32, align 4
  %5 = alloca ptr, align 8
  %6 = alloca ptr, align 8
  %7 = alloca i32, align 4
  %8 = alloca i32, align 4
  %9 = alloca i32, align 4
  store i32 %0, ptr %4, align 4, !tbaa !23
  store ptr %1, ptr %5, align 8, !tbaa !17
  %10 = load i32, ptr %4, align 4, !tbaa !23
  %11 = icmp slt i32 %10, 0
  br i1 %11, label %16, label %12

12:                                               ; preds = %2
  %13 = load i32, ptr %4, align 4, !tbaa !23
  %14 = call noundef i32 @_ZL15_udbg_enumCount14UDebugEnumTypea(i32 noundef 0, i8 noundef signext 1)
  %15 = icmp sge i32 %13, %14
  br i1 %15, label %16, label %17

16:                                               ; preds = %12, %2
  store i32 -1, ptr %3, align 4
  br label %93

17:                                               ; preds = %12
  call void @llvm.lifetime.start.p0(i64 8, ptr %6) #13
  %18 = load i32, ptr %4, align 4, !tbaa !23
  %19 = call noundef ptr @_ZL16_udbg_enumFields14UDebugEnumType(i32 noundef %18)
  store ptr %19, ptr %6, align 8, !tbaa !26
  %20 = load ptr, ptr %6, align 8, !tbaa !26
  %21 = icmp ne ptr %20, null
  br i1 %21, label %22, label %91

22:                                               ; preds = %17
  call void @llvm.lifetime.start.p0(i64 4, ptr %7) #13
  store i32 0, ptr %7, align 4, !tbaa !14
  br label %23

23:                                               ; preds = %55, %22
  %24 = load i32, ptr %7, align 4, !tbaa !14
  %25 = load i32, ptr %4, align 4, !tbaa !23
  %26 = call noundef i32 @_ZL15_udbg_enumCount14UDebugEnumTypea(i32 noundef %25, i8 noundef signext 0)
  %27 = icmp slt i32 %24, %26
  br i1 %27, label %29, label %28

28:                                               ; preds = %23
  store i32 2, ptr %8, align 4
  br label %58

29:                                               ; preds = %23
  %30 = load ptr, ptr %5, align 8, !tbaa !17
  %31 = load ptr, ptr %6, align 8, !tbaa !26
  %32 = load i32, ptr %7, align 4, !tbaa !14
  %33 = sext i32 %32 to i64
  %34 = getelementptr inbounds %struct.Field, ptr %31, i64 %33
  %35 = getelementptr inbounds nuw %struct.Field, ptr %34, i32 0, i32 1
  %36 = load ptr, ptr %35, align 8, !tbaa !28
  %37 = load ptr, ptr %6, align 8, !tbaa !26
  %38 = load i32, ptr %7, align 4, !tbaa !14
  %39 = sext i32 %38 to i64
  %40 = getelementptr inbounds %struct.Field, ptr %37, i64 %39
  %41 = getelementptr inbounds nuw %struct.Field, ptr %40, i32 0, i32 0
  %42 = load i32, ptr %41, align 8, !tbaa !30
  %43 = sext i32 %42 to i64
  %44 = getelementptr inbounds i8, ptr %36, i64 %43
  %45 = call i32 @strcmp(ptr noundef %30, ptr noundef %44) #21
  %46 = icmp ne i32 %45, 0
  br i1 %46, label %54, label %47

47:                                               ; preds = %29
  %48 = load ptr, ptr %6, align 8, !tbaa !26
  %49 = load i32, ptr %7, align 4, !tbaa !14
  %50 = sext i32 %49 to i64
  %51 = getelementptr inbounds %struct.Field, ptr %48, i64 %50
  %52 = getelementptr inbounds nuw %struct.Field, ptr %51, i32 0, i32 2
  %53 = load i32, ptr %52, align 8, !tbaa !31
  store i32 %53, ptr %3, align 4
  store i32 1, ptr %8, align 4
  br label %58

54:                                               ; preds = %29
  br label %55

55:                                               ; preds = %54
  %56 = load i32, ptr %7, align 4, !tbaa !14
  %57 = add nsw i32 %56, 1
  store i32 %57, ptr %7, align 4, !tbaa !14
  br label %23, !llvm.loop !32

58:                                               ; preds = %47, %28
  call void @llvm.lifetime.end.p0(i64 4, ptr %7) #13
  %59 = load i32, ptr %8, align 4
  switch i32 %59, label %92 [
    i32 2, label %60
  ]

60:                                               ; preds = %58
  call void @llvm.lifetime.start.p0(i64 4, ptr %9) #13
  store i32 0, ptr %9, align 4, !tbaa !14
  br label %61

61:                                               ; preds = %85, %60
  %62 = load i32, ptr %9, align 4, !tbaa !14
  %63 = load i32, ptr %4, align 4, !tbaa !23
  %64 = call noundef i32 @_ZL15_udbg_enumCount14UDebugEnumTypea(i32 noundef %63, i8 noundef signext 0)
  %65 = icmp slt i32 %62, %64
  br i1 %65, label %67, label %66

66:                                               ; preds = %61
  store i32 5, ptr %8, align 4
  br label %88

67:                                               ; preds = %61
  %68 = load ptr, ptr %5, align 8, !tbaa !17
  %69 = load ptr, ptr %6, align 8, !tbaa !26
  %70 = load i32, ptr %9, align 4, !tbaa !14
  %71 = sext i32 %70 to i64
  %72 = getelementptr inbounds %struct.Field, ptr %69, i64 %71
  %73 = getelementptr inbounds nuw %struct.Field, ptr %72, i32 0, i32 1
  %74 = load ptr, ptr %73, align 8, !tbaa !28
  %75 = call i32 @strcmp(ptr noundef %68, ptr noundef %74) #21
  %76 = icmp ne i32 %75, 0
  br i1 %76, label %84, label %77

77:                                               ; preds = %67
  %78 = load ptr, ptr %6, align 8, !tbaa !26
  %79 = load i32, ptr %9, align 4, !tbaa !14
  %80 = sext i32 %79 to i64
  %81 = getelementptr inbounds %struct.Field, ptr %78, i64 %80
  %82 = getelementptr inbounds nuw %struct.Field, ptr %81, i32 0, i32 2
  %83 = load i32, ptr %82, align 8, !tbaa !31
  store i32 %83, ptr %3, align 4
  store i32 1, ptr %8, align 4
  br label %88

84:                                               ; preds = %67
  br label %85

85:                                               ; preds = %84
  %86 = load i32, ptr %9, align 4, !tbaa !14
  %87 = add nsw i32 %86, 1
  store i32 %87, ptr %9, align 4, !tbaa !14
  br label %61, !llvm.loop !34

88:                                               ; preds = %77, %66
  call void @llvm.lifetime.end.p0(i64 4, ptr %9) #13
  %89 = load i32, ptr %8, align 4
  switch i32 %89, label %92 [
    i32 5, label %90
  ]

90:                                               ; preds = %88
  br label %91

91:                                               ; preds = %90, %17
  store i32 -1, ptr %3, align 4
  store i32 1, ptr %8, align 4
  br label %92

92:                                               ; preds = %91, %88, %58
  call void @llvm.lifetime.end.p0(i64 8, ptr %6) #13
  br label %93

93:                                               ; preds = %92, %16
  %94 = load i32, ptr %3, align 4
  ret i32 %94
}