; Function Attrs: mustprogress nofree nounwind willreturn memory(read, inaccessiblemem: none) uwtable
define i32 @udbg_enumByName(i32 noundef %0, ptr noundef readonly captures(none) %1) local_unnamed_addr #11 {
  %or.cond = icmp ult i32 %0, 6
  br i1 %or.cond, label %switch.lookup, label %_ZL16_udbg_enumFields14UDebugEnumType.exit.thread

switch.lookup:                                    ; preds = %2
  %3 = zext nneg i32 %0 to i64
  %switch.gep = getelementptr inbounds nuw [6 x ptr], ptr @switch.table.udbg_enumByName, i64 0, i64 %3
  %switch.load = load ptr, ptr %switch.gep, align 8
  %4 = zext nneg i32 %0 to i64
  %switch.gep55 = getelementptr inbounds nuw [6 x i64], ptr @switch.table.udbg_enumByName.4, i64 0, i64 %4
  br label %switch.lookup54

switch.lookup54:                                  ; preds = %6, %switch.lookup
  %indvars.iv = phi i64 [ %indvars.iv.next, %6 ], [ 0, %switch.lookup ]
  %switch.load56 = load i64, ptr %switch.gep55, align 8
  %.not33 = icmp slt i64 %indvars.iv, %switch.load56
  br i1 %.not33, label %6, label %.preheader.preheader

.preheader.preheader:                             ; preds = %switch.lookup54
  %5 = zext nneg i32 %0 to i64
  %switch.gep58 = getelementptr inbounds nuw [6 x i64], ptr @switch.table.udbg_enumByName.4, i64 0, i64 %5
  br label %.preheader

6:                                                ; preds = %switch.lookup54
  %7 = getelementptr inbounds nuw %struct.Field, ptr %switch.load, i64 %indvars.iv
  %8 = getelementptr inbounds nuw i8, ptr %7, i64 8
  %9 = load ptr, ptr %8, align 8, !tbaa !15
  %10 = load i32, ptr %7, align 8, !tbaa !17
  %11 = sext i32 %10 to i64
  %12 = getelementptr inbounds i8, ptr %9, i64 %11
  %13 = tail call i32 @strcmp(ptr noundef nonnull dereferenceable(1) %1, ptr noundef nonnull dereferenceable(1) %12) #29
  %.not32 = icmp eq i32 %13, 0
  %indvars.iv.next = add nuw nsw i64 %indvars.iv, 1
  br i1 %.not32, label %_ZL16_udbg_enumFields14UDebugEnumType.exit.thread.sink.split, label %switch.lookup54, !llvm.loop !19

.preheader:                                       ; preds = %.preheader.preheader, %14
  %indvars.iv47 = phi i64 [ %indvars.iv.next48, %14 ], [ 0, %.preheader.preheader ]
  %switch.load59 = load i64, ptr %switch.gep58, align 8
  %.not35 = icmp slt i64 %indvars.iv47, %switch.load59
  br i1 %.not35, label %14, label %_ZL16_udbg_enumFields14UDebugEnumType.exit.thread

14:                                               ; preds = %.preheader
  %15 = getelementptr inbounds nuw %struct.Field, ptr %switch.load, i64 %indvars.iv47, i32 1
  %16 = load ptr, ptr %15, align 8, !tbaa !15
  %17 = tail call i32 @strcmp(ptr noundef nonnull dereferenceable(1) %1, ptr noundef nonnull dereferenceable(1) %16) #29
  %.not34 = icmp eq i32 %17, 0
  %indvars.iv.next48 = add nuw nsw i64 %indvars.iv47, 1
  br i1 %.not34, label %_ZL16_udbg_enumFields14UDebugEnumType.exit.thread.sink.split, label %.preheader, !llvm.loop !21

_ZL16_udbg_enumFields14UDebugEnumType.exit.thread.sink.split: ; preds = %6, %14
  %18 = phi i64 [ %indvars.iv47, %14 ], [ %indvars.iv, %6 ]
  %19 = getelementptr inbounds nuw %struct.Field, ptr %switch.load, i64 %18, i32 2
  %20 = load i32, ptr %19, align 8, !tbaa !18
  br label %_ZL16_udbg_enumFields14UDebugEnumType.exit.thread

_ZL16_udbg_enumFields14UDebugEnumType.exit.thread: ; preds = %.preheader, %_ZL16_udbg_enumFields14UDebugEnumType.exit.thread.sink.split, %2
  %.027 = phi i32 [ -1, %2 ], [ %20, %_ZL16_udbg_enumFields14UDebugEnumType.exit.thread.sink.split ], [ -1, %.preheader ]
  ret i32 %.027
}